target datalayout = "e-m:e-p270:32:32-p271:32:32-p272:64:64-i64:64-i128:128-f80:128-n8:16:32:64-S128"
target triple = "x86_64-pc-linux-gnu"

; Function Attrs: inlinehint nounwind null_pointer_is_valid sspstrong uwtable
define internal i64 @pletoh40(ptr noundef %0) #7 {
  %2 = alloca ptr, align 8
  store ptr %0, ptr %2, align 8
  %3 = load ptr, ptr %2, align 8
  %4 = getelementptr i8, ptr %3, i64 4
  %5 = load i8, ptr %4, align 1
  %6 = zext i8 %5 to i64
  %7 = shl i64 %6, 32
  %8 = load ptr, ptr %2, align 8
  %9 = getelementptr i8, ptr %8, i64 3
  %10 = load i8, ptr %9, align 1
  %11 = zext i8 %10 to i64
  %12 = shl i64 %11, 24
  %13 = or i64 %7, %12
  %14 = load ptr, ptr %2, align 8
  %15 = getelementptr i8, ptr %14, i64 2
  %16 = load i8, ptr %15, align 1
  %17 = zext i8 %16 to i64
  %18 = shl i64 %17, 16
  %19 = or i64 %13, %18
  %20 = load ptr, ptr %2, align 8
  %21 = getelementptr i8, ptr %20, i64 1
  %22 = load i8, ptr %21, align 1
  %23 = zext i8 %22 to i64
  %24 = shl i64 %23, 8
  %25 = or i64 %19, %24
  %26 = load ptr, ptr %2, align 8
  %27 = getelementptr i8, ptr %26, i64 0
  %28 = load i8, ptr %27, align 1
  %29 = zext i8 %28 to i64
  %30 = shl i64 %29, 0
  %31 = or i64 %25, %30
  ret i64 %31
}

; Function Attrs: inlinehint nounwind null_pointer_is_valid sspstrong uwtable
define internal i64 @ws_sign_ext64(i64 noundef %0, i32 noundef %1) #7 {
  %3 = alloca i64, align 8
  %4 = alloca i64, align 8
  %5 = alloca i32, align 4
  store i64 %0, ptr %4, align 8
  store i32 %1, ptr %5, align 4
  br label %6

6:                                                ; preds = %2
  br label %7

7:                                                ; preds = %6
  %8 = load i32, ptr %5, align 4
  %9 = icmp eq i32 %8, 0
  br i1 %9, label %13, label %10

10:                                               ; preds = %7
  %11 = load i32, ptr %5, align 4
  %12 = icmp eq i32 %11, 64
  br i1 %12, label %13, label %15

13:                                               ; preds = %10, %7
  %14 = load i64, ptr %4, align 8
  store i64 %14, ptr %3, align 8
  br label %31

15:                                               ; preds = %10
  %16 = load i64, ptr %4, align 8
  %17 = load i32, ptr %5, align 4
  %18 = sub i32 %17, 1
  %19 = zext i32 %18 to i64
  %20 = shl i64 1, %19
  %21 = and i64 %16, %20
  %22 = icmp ne i64 %21, 0
  br i1 %22, label %23, label %29

23:                                               ; preds = %15
  %24 = load i32, ptr %5, align 4
  %25 = zext i32 %24 to i64
  %26 = shl i64 -1, %25
  %27 = load i64, ptr %4, align 8
  %28 = or i64 %27, %26
  store i64 %28, ptr %4, align 8
  br label %29

29:                                               ; preds = %23, %15
  %30 = load i64, ptr %4, align 8
  store i64 %30, ptr %3, align 8
  br label %31

31:                                               ; preds = %29, %13
  %32 = load i64, ptr %3, align 8
  ret i64 %32
}

; Function Attrs: null_pointer_is_valid sspstrong uwtable
define i64 @tvb_get_letoh40(ptr noundef %0, i32 noundef %1) #0 {
  %3 = alloca ptr, align 8
  %4 = alloca i32, align 4
  %5 = alloca ptr, align 8
  store ptr %0, ptr %3, align 8
  store i32 %1, ptr %4, align 4
  call void @llvm.lifetime.start.p0(i64 8, ptr %5) #16
  %6 = load ptr, ptr %3, align 8
  %7 = load i32, ptr %4, align 4
  %8 = call ptr @fast_ensure_contiguous(ptr noundef %6, i32 noundef %7, i32 noundef 5)
  store ptr %8, ptr %5, align 8
  %9 = load ptr, ptr %5, align 8
  %10 = call i64 @pletoh40(ptr noundef %9)
  call void @llvm.lifetime.end.p0(i64 8, ptr %5) #16
  ret i64 %10
}

; Function Attrs: null_pointer_is_valid sspstrong uwtable
define i64 @tvb_get_letohi40(ptr noundef %0, i32 noundef %1) #0 {
  %3 = alloca ptr, align 8
  %4 = alloca i32, align 4
  %5 = alloca i64, align 8
  store ptr %0, ptr %3, align 8
  store i32 %1, ptr %4, align 4
  call void @llvm.lifetime.start.p0(i64 8, ptr %5) #16
  %6 = load ptr, ptr %3, align 8
  %7 = load i32, ptr %4, align 4
  %8 = call i64 @tvb_get_letoh40(ptr noundef %6, i32 noundef %7)
  %9 = call i64 @ws_sign_ext64(i64 noundef %8, i32 noundef 40)
  store i64 %9, ptr %5, align 8
  %10 = load i64, ptr %5, align 8
  call void @llvm.lifetime.end.p0(i64 8, ptr %5) #16
  ret i64 %10
}