; Function Attrs: null_pointer_is_valid sspstrong uwtable
define range(i64 -72057594037927936, 72057594037927936) i64 @tvb_get_letohi40(ptr noundef %0, i32 noundef %1) local_unnamed_addr #0 {
  %3 = tail call fastcc ptr @fast_ensure_contiguous(ptr noundef %0, i32 noundef %1, i32 noundef 5)
  %4 = getelementptr i8, ptr %3, i64 1
  %5 = load i32, ptr %4, align 1
  %6 = zext i32 %5 to i64
  %7 = shl nuw nsw i64 %6, 8
  %8 = load i8, ptr %3, align 1
  %9 = zext i8 %8 to i64
  %10 = or disjoint i64 %7, %9
  %.not.i = icmp sgt i32 %5, -1
  %11 = select i1 %.not.i, i64 0, i64 -1099511627776
  %.010.i = or disjoint i64 %10, %11
  ret i64 %.010.i
}